(dp0
S'!'
p1
(lp2
S'11110'
p3
aS'11110'
p4
aS'11110'
p5
aS'01100'
p6
aS'00000'
p7
aS'11110'
p8
aS'11110'
p9
asS' '
p10
(lp11
S'000'
p12
aS'000'
p13
aS'000'
p14
aS'000'
p15
aS'000'
p16
aS'000'
p17
aS'000'
p18
asS'#'
p19
(lp20
S'0011011000'
p21
aS'0011011000'
p22
aS'1111111110'
p23
aS'0011011000'
p24
aS'1111111110'
p25
aS'0011011000'
p26
aS'0011011000'
p27
asS'+'
p28
(lp29
S'0000000'
p30
aS'0011000'
p31
aS'0011000'
p32
aS'1111110'
p33
aS'0011000'
p34
aS'0011000'
p35
asS'-'
p36
(lp37
S'00000000'
p38
aS'00000000'
p39
aS'00000000'
p40
aS'11111110'
p41
aS'00000000'
p42
aS'00000000'
p43
asS','
p44
(lp45
S'00000'
p46
aS'00000'
p47
aS'00000'
p48
aS'11110'
p49
aS'11110'
p50
aS'01100'
p51
aS'11000'
p52
asS'.'
p53
(lp54
S'0000'
p55
aS'0000'
p56
aS'0000'
p57
aS'0000'
p58
aS'0000'
p59
aS'1110'
p60
aS'1110'
p61
asS'1'
p62
(lp63
S'0011000'
p64
aS'1111000'
p65
aS'0011000'
p66
aS'0011000'
p67
aS'0011000'
p68
aS'0011000'
p69
aS'1111110'
p70
asS'0'
p71
(lp72
S'0011111000'
p73
aS'0110001100'
p74
aS'1100000110'
p75
aS'1100000110'
p76
aS'1100000110'
p77
aS'0110001100'
p78
aS'0011111000'
p79
asS'3'
p80
(lp81
S'0111111100'
p82
aS'1100000110'
p83
aS'0000000110'
p84
aS'0111111100'
p85
aS'0000000110'
p86
aS'1100000110'
p87
aS'0111111100'
p88
asS'2'
p89
(lp90
S'0111111100'
p91
aS'1100000110'
p92
aS'0000000110'
p93
aS'0111111100'
p94
aS'1100000000'
p95
aS'1100000000'
p96
aS'1111111110'
p97
asS'5'
p98
(lp99
S'111111110'
p100
aS'110000000'
p101
aS'110000000'
p102
aS'111111100'
p103
aS'000000110'
p104
aS'110000110'
p105
aS'011111100'
p106
asS'4'
p107
(lp108
S'1100000000'
p109
aS'1100001100'
p110
aS'1100001100'
p111
aS'1100001100'
p112
aS'1111111110'
p113
aS'0000001100'
p114
aS'0000001100'
p115
asS'7'
p116
(lp117
S'111111110'
p118
aS'110000110'
p119
aS'000011000'
p120
aS'000110000'
p121
aS'001100000'
p122
aS'001100000'
p123
aS'001100000'
p124
asS'6'
p125
(lp126
S'0111111100'
p127
aS'1100000110'
p128
aS'1100000000'
p129
aS'1111111100'
p130
aS'1100000110'
p131
aS'1100000110'
p132
aS'0111111100'
p133
asS'9'
p134
(lp135
S'0111111100'
p136
aS'1100000110'
p137
aS'1100000110'
p138
aS'0111111110'
p139
aS'0000000110'
p140
aS'1100000110'
p141
aS'0111111100'
p142
asS'8'
p143
(lp144
S'0111111100'
p145
aS'1100000110'
p146
aS'1100000110'
p147
aS'0111111100'
p148
aS'1100000110'
p149
aS'1100000110'
p150
aS'0111111100'
p151
asS':'
p152
(lp153
S'01100'
p154
aS'11110'
p155
aS'01100'
p156
aS'00000'
p157
aS'01100'
p158
aS'11110'
p159
aS'01100'
p160
asS'?'
p161
(lp162
S'0111111100'
p163
aS'1100000110'
p164
aS'0000001100'
p165
aS'0000111000'
p166
aS'0001100000'
p167
aS'0000000000'
p168
aS'0001100000'
p169
asS'@'
p170
(lp171
S'0111111100'
p172
aS'1100000110'
p173
aS'1101110110'
p174
aS'1101110110'
p175
aS'1101111100'
p176
aS'1100000000'
p177
aS'0111111100'
p178
asS'_'
p179
(lp180
S'00000000'
p181
aS'00000000'
p182
aS'00000000'
p183
aS'00000000'
p184
aS'00000000'
p185
aS'00000000'
p186
aS'11111110'
p187
asS'a'
p188
(lp189
S'0001110000'
p190
aS'0011011000'
p191
aS'0110001100'
p192
aS'1100000110'
p193
aS'1111111110'
p194
aS'1100000110'
p195
aS'1100000110'
p196
asS'c'
p197
(lp198
S'011111100'
p199
aS'110000110'
p200
aS'110000000'
p201
aS'110000000'
p202
aS'110000000'
p203
aS'110000110'
p204
aS'011111100'
p205
asS'b'
p206
(lp207
S'1111111100'
p208
aS'1100000110'
p209
aS'1100000110'
p210
aS'1111111100'
p211
aS'1100000110'
p212
aS'1100000110'
p213
aS'1111111100'
p214
asS'e'
p215
(lp216
S'111111110'
p217
aS'110000000'
p218
aS'110000000'
p219
aS'111111000'
p220
aS'110000000'
p221
aS'110000000'
p222
aS'111111110'
p223
asS'd'
p224
(lp225
S'1111111100'
p226
aS'1100000110'
p227
aS'1100000110'
p228
aS'1100000110'
p229
aS'1100000110'
p230
aS'1100000110'
p231
aS'1111111100'
p232
asS'g'
p233
(lp234
S'0111111000'
p235
aS'1100001100'
p236
aS'1100000000'
p237
aS'1100011110'
p238
aS'1100001100'
p239
aS'1100001100'
p240
aS'0111111000'
p241
asS'f'
p242
(lp243
S'111111110'
p244
aS'110000000'
p245
aS'110000000'
p246
aS'111111000'
p247
aS'110000000'
p248
aS'110000000'
p249
aS'110000000'
p250
asS'i'
p251
(lp252
S'11110'
p253
aS'01100'
p254
aS'01100'
p255
aS'01100'
p256
aS'01100'
p257
aS'01100'
p258
aS'11110'
p259
asS'h'
p260
(lp261
S'1100000110'
p262
aS'1100000110'
p263
aS'1100000110'
p264
aS'1111111110'
p265
aS'1100000110'
p266
aS'1100000110'
p267
aS'1100000110'
p268
asS'k'
p269
(lp270
S'110000110'
p271
aS'110001100'
p272
aS'110011000'
p273
aS'111110000'
p274
aS'110011000'
p275
aS'110001100'
p276
aS'110000110'
p277
asS'j'
p278
(lp279
S'000000110'
p280
aS'000000110'
p281
aS'000000110'
p282
aS'000000110'
p283
aS'110000110'
p284
aS'110000110'
p285
aS'011111100'
p286
asS'm'
p287
(lp288
S'1100000110'
p289
aS'1110001110'
p290
aS'1111011110'
p291
aS'1101110110'
p292
aS'1100000110'
p293
aS'1100000110'
p294
aS'1100000110'
p295
asS'l'
p296
(lp297
S'110000000'
p298
aS'110000000'
p299
aS'110000000'
p300
aS'110000000'
p301
aS'110000000'
p302
aS'110000000'
p303
aS'111111110'
p304
asS'o'
p305
(lp306
S'0111111100'
p307
aS'1100000110'
p308
aS'1100000110'
p309
aS'1100000110'
p310
aS'1100000110'
p311
aS'1100000110'
p312
aS'0111111100'
p313
asS'n'
p314
(lp315
S'110000110'
p316
aS'111000110'
p317
aS'111100110'
p318
aS'110110110'
p319
aS'110011110'
p320
aS'110001110'
p321
aS'110000110'
p322
asS'q'
p323
(lp324
S'0111111100'
p325
aS'1100000110'
p326
aS'1100000110'
p327
aS'1100000110'
p328
aS'1100110110'
p329
aS'1100001100'
p330
aS'0111110110'
p331
asS'p'
p332
(lp333
S'1111111100'
p334
aS'1100000110'
p335
aS'1100000110'
p336
aS'1111111100'
p337
aS'1100000000'
p338
aS'1100000000'
p339
aS'1100000000'
p340
asS's'
p341
(lp342
S'011111100'
p343
aS'110000110'
p344
aS'110000000'
p345
aS'011111100'
p346
aS'000000110'
p347
aS'110000110'
p348
aS'011111100'
p349
asS'r'
p350
(lp351
S'1111111100'
p352
aS'1100000110'
p353
aS'1100000110'
p354
aS'1111111100'
p355
aS'1100011000'
p356
aS'1100001100'
p357
aS'1100000110'
p358
asS'u'
p359
(lp360
S'1100000110'
p361
aS'1100000110'
p362
aS'1100000110'
p363
aS'1100000110'
p364
aS'1100000110'
p365
aS'1100000110'
p366
aS'0111111100'
p367
asS't'
p368
(lp369
S'111111110'
p370
aS'000110000'
p371
aS'000110000'
p372
aS'000110000'
p373
aS'000110000'
p374
aS'000110000'
p375
aS'000110000'
p376
asS'w'
p377
(lp378
S'11000000110'
p379
aS'11001100110'
p380
aS'11001100110'
p381
aS'11001100110'
p382
aS'11001100110'
p383
aS'11001100110'
p384
aS'01110011100'
p385
asS'v'
p386
(lp387
S'1100000110'
p388
aS'1100000110'
p389
aS'1100000110'
p390
aS'1100000110'
p391
aS'0110001100'
p392
aS'0011011000'
p393
aS'0001110000'
p394
asS'y'
p395
(lp396
S'110000110'
p397
aS'011001100'
p398
aS'001111000'
p399
aS'000110000'
p400
aS'000110000'
p401
aS'000110000'
p402
aS'000110000'
p403
asS'x'
p404
(lp405
S'1100000110'
p406
aS'0110001100'
p407
aS'0011011000'
p408
aS'0001110000'
p409
aS'0011011000'
p410
aS'0110001100'
p411
aS'1100000110'
p412
asS'z'
p413
(lp414
S'111111110'
p415
aS'000001100'
p416
aS'000011000'
p417
aS'000110000'
p418
aS'001100000'
p419
aS'011000000'
p420
aS'111111110'
p421
as.